
out.elf:     file format elf32-littleriscv


Disassembly of section .text:

00010054 <main>:
   10054:	094002ef          	jal	t0,100e8 <__riscv_save_0>
   10058:	41dc                	lw	a5,4(a1)
   1005a:	4188                	lw	a0,0(a1)
   1005c:	00a78593          	addi	a1,a5,10
   10060:	0529                	addi	a0,a0,10
   10062:	2019                	jal	10068 <bar>
   10064:	4501                	li	a0,0
   10066:	a0e9                	j	10130 <__riscv_restore_0>

00010068 <bar>:
   10068:	080002ef          	jal	t0,100e8 <__riscv_save_0>
   1006c:	054e                	slli	a0,a0,0x13
   1006e:	1101                	addi	sp,sp,-32
   10070:	814d                	srli	a0,a0,0x13
   10072:	c42e                	sw	a1,8(sp)
   10074:	c22a                	sw	a0,4(sp)
   10076:	002c                	addi	a1,sp,8
   10078:	0048                	addi	a0,sp,4
   1007a:	2039                	jal	10088 <foo>
   1007c:	6105                	addi	sp,sp,32
   1007e:	a84d                	j	10130 <__riscv_restore_0>

00010080 <_start>:
   10080:	068002ef          	jal	t0,100e8 <__riscv_save_0>
   10084:	3fc1                	jal	10054 <main>
   10086:	a06d                	j	10130 <__riscv_restore_0>

00010088 <foo>:
   10088:	8082                	ret
	...

0001008c <__riscv_save_12>:
   1008c:	fc010113          	addi	sp,sp,-64
   10090:	00000313          	li	t1,0
   10094:	01b12623          	sw	s11,12(sp)
   10098:	00c0006f          	j	100a4 <__riscv_save_10+0x8>

0001009c <__riscv_save_10>:
   1009c:	fc010113          	addi	sp,sp,-64
   100a0:	ff000313          	li	t1,-16
   100a4:	01a12823          	sw	s10,16(sp)
   100a8:	01912a23          	sw	s9,20(sp)
   100ac:	01812c23          	sw	s8,24(sp)
   100b0:	01712e23          	sw	s7,28(sp)
   100b4:	00c0006f          	j	100c0 <__riscv_save_4+0x8>

000100b8 <__riscv_save_4>:
   100b8:	fc010113          	addi	sp,sp,-64
   100bc:	fe000313          	li	t1,-32
   100c0:	03612023          	sw	s6,32(sp)
   100c4:	03512223          	sw	s5,36(sp)
   100c8:	03412423          	sw	s4,40(sp)
   100cc:	03312623          	sw	s3,44(sp)
   100d0:	03212823          	sw	s2,48(sp)
   100d4:	02912a23          	sw	s1,52(sp)
   100d8:	02812c23          	sw	s0,56(sp)
   100dc:	02112e23          	sw	ra,60(sp)
   100e0:	40610133          	sub	sp,sp,t1
   100e4:	00028067          	jr	t0

000100e8 <__riscv_save_0>:
   100e8:	ff010113          	addi	sp,sp,-16
   100ec:	01212023          	sw	s2,0(sp)
   100f0:	00912223          	sw	s1,4(sp)
   100f4:	00812423          	sw	s0,8(sp)
   100f8:	00112623          	sw	ra,12(sp)
   100fc:	00028067          	jr	t0

00010100 <__riscv_restore_12>:
   10100:	00c12d83          	lw	s11,12(sp)
   10104:	01010113          	addi	sp,sp,16

00010108 <__riscv_restore_10>:
   10108:	00012d03          	lw	s10,0(sp)
   1010c:	00412c83          	lw	s9,4(sp)
   10110:	00812c03          	lw	s8,8(sp)
   10114:	00c12b83          	lw	s7,12(sp)
   10118:	01010113          	addi	sp,sp,16

0001011c <__riscv_restore_4>:
   1011c:	00012b03          	lw	s6,0(sp)
   10120:	00412a83          	lw	s5,4(sp)
   10124:	00812a03          	lw	s4,8(sp)
   10128:	00c12983          	lw	s3,12(sp)
   1012c:	01010113          	addi	sp,sp,16

00010130 <__riscv_restore_0>:
   10130:	00012903          	lw	s2,0(sp)
   10134:	00412483          	lw	s1,4(sp)
   10138:	00812403          	lw	s0,8(sp)
   1013c:	00c12083          	lw	ra,12(sp)
   10140:	01010113          	addi	sp,sp,16
   10144:	00008067          	ret

Disassembly of section .eh_frame:

00010148 <__BSS_END__-0x10f8>:
   10148:	0010                	0x10
   1014a:	0000                	unimp
   1014c:	0000                	unimp
   1014e:	0000                	unimp
   10150:	7a01                	lui	s4,0xfffe0
   10152:	0052                	c.slli	zero,0x14
   10154:	7c01                	lui	s8,0xfffe0
   10156:	0105                	addi	sp,sp,1
   10158:	00020d1b          	0x20d1b
   1015c:	0048                	addi	a0,sp,4
   1015e:	0000                	unimp
   10160:	0018                	0x18
   10162:	0000                	unimp
   10164:	ff28                	fsw	fa0,120(a4)
   10166:	ffff                	0xffff
   10168:	005c                	addi	a5,sp,4
   1016a:	0000                	unimp
   1016c:	4400                	lw	s0,8(s0)
   1016e:	400e                	0x400e
   10170:	9b48                	0x9b48
   10172:	440d                	li	s0,3
   10174:	400e44db          	0x400e44db
   10178:	9a48                	0x9a48
   1017a:	440c                	lw	a1,8(s0)
   1017c:	0b99                	addi	s7,s7,6
   1017e:	9844                	0x9844
   10180:	440a                	lw	s0,128(sp)
   10182:	d7440997          	auipc	s3,0xd7440
   10186:	d9d8                	sw	a4,52(a1)
   10188:	dbda                	sw	s6,244(sp)
   1018a:	0e44                	addi	s1,sp,788
   1018c:	4840                	lw	s0,20(s0)
   1018e:	0896                	slli	a7,a7,0x5
   10190:	9544                	0x9544
   10192:	06944407          	flq	fs0,105(s0)
   10196:	9344                	0x9344
   10198:	4405                	li	s0,1
   1019a:	0492                	slli	s1,s1,0x4
   1019c:	8944                	0x8944
   1019e:	02884403          	lbu	s0,40(a6)
   101a2:	8144                	0x8144
   101a4:	0001                	nop
   101a6:	0000                	unimp
   101a8:	001c                	0x1c
   101aa:	0000                	unimp
   101ac:	0064                	addi	s1,sp,12
   101ae:	0000                	unimp
   101b0:	ff38                	fsw	fa4,120(a4)
   101b2:	ffff                	0xffff
   101b4:	0018                	0x18
   101b6:	0000                	unimp
   101b8:	4400                	lw	s0,8(s0)
   101ba:	100e                	c.slli	zero,0x23
   101bc:	8948                	0x8948
   101be:	4404                	lw	s1,8(s0)
   101c0:	0288                	addi	a0,sp,320
   101c2:	8144                	0x8144
   101c4:	0001                	nop
   101c6:	0000                	unimp
   101c8:	002c                	addi	a1,sp,8
   101ca:	0000                	unimp
   101cc:	0000                	unimp
   101ce:	0000                	unimp
   101d0:	7a01                	lui	s4,0xfffe0
   101d2:	0052                	c.slli	zero,0x14
   101d4:	7c01                	lui	s8,0xfffe0
   101d6:	0101                	addi	sp,sp,0
   101d8:	0e020d1b          	0xe020d1b
   101dc:	9b40                	0x9b40
   101de:	9a0d                	andi	a2,a2,-29
   101e0:	990c                	0x990c
   101e2:	970a980b          	0x970a980b
   101e6:	9609                	srai	a2,a2,0x22
   101e8:	9508                	0x9508
   101ea:	93069407          	0x93069407
   101ee:	9205                	srli	a2,a2,0x21
   101f0:	8904                	0x8904
   101f2:	81028803          	lb	a6,-2032(t0)
   101f6:	0001                	nop
   101f8:	0044                	addi	s1,sp,4
   101fa:	0000                	unimp
   101fc:	0034                	addi	a3,sp,8
   101fe:	0000                	unimp
   10200:	ff00                	fsw	fs0,56(a4)
   10202:	ffff                	0xffff
   10204:	0048                	addi	a0,sp,4
   10206:	0000                	unimp
   10208:	4400                	lw	s0,8(s0)
   1020a:	0edb44db          	0xedb44db
   1020e:	4430                	lw	a2,72(s0)
   10210:	44da                	lw	s1,148(sp)
   10212:	44d9                	li	s1,22
   10214:	44d8                	lw	a4,12(s1)
   10216:	d8d744d7          	0xd8d744d7
   1021a:	dad9                	beqz	a3,101b0 <__riscv_restore_0+0x80>
   1021c:	44200edb          	0x44200edb
   10220:	44d6                	lw	s1,84(sp)
   10222:	44d5                	li	s1,21
   10224:	44d4                	lw	a3,12(s1)
   10226:	d4d344d3          	0xd4d344d3
   1022a:	d6d5                	beqz	a3,101d6 <__riscv_restore_0+0xa6>
   1022c:	d9d8                	sw	a4,52(a1)
   1022e:	dbda                	sw	s6,244(sp)
   10230:	100e                	c.slli	zero,0x23
   10232:	d244                	sw	s1,36(a2)
   10234:	c944                	sw	s1,20(a0)
   10236:	c844                	sw	s1,20(s0)
   10238:	c144                	sw	s1,4(a0)
   1023a:	0e44                	addi	s1,sp,788
   1023c:	0000                	unimp
	...

Disassembly of section .comment:

00000000 <.comment>:
   0:	3a434347          	fmsub.d	ft6,ft6,ft4,ft7,rmm
   4:	2820                	fld	fs0,80(s0)
   6:	29554e47          	fmsub.s	ft8,fa0,fs5,ft5,rmm
   a:	3820                	fld	fs0,112(s0)
   c:	322e                	fld	ft4,232(sp)
   e:	302e                	fld	ft0,232(sp)
	...

Disassembly of section .debug_aranges:

00000000 <.debug_aranges>:
   0:	002c                	addi	a1,sp,8
   2:	0000                	unimp
   4:	0002                	c.slli64	zero
   6:	0000                	unimp
   8:	0000                	unimp
   a:	0004                	0x4
   c:	0000                	unimp
   e:	0000                	unimp
  10:	0068                	addi	a0,sp,12
  12:	0001                	nop
  14:	0018                	0x18
  16:	0000                	unimp
  18:	0054                	addi	a3,sp,4
  1a:	0001                	nop
  1c:	0014                	0x14
  1e:	0000                	unimp
  20:	0080                	addi	s0,sp,64
  22:	0001                	nop
  24:	0008                	0x8
	...
  2e:	0000                	unimp
  30:	001c                	0x1c
  32:	0000                	unimp
  34:	0002                	c.slli64	zero
  36:	00000243          	fmadd.s	ft4,ft0,ft0,ft0,rne
  3a:	0004                	0x4
  3c:	0000                	unimp
  3e:	0000                	unimp
  40:	0088                	addi	a0,sp,64
  42:	0001                	nop
  44:	0002                	c.slli64	zero
	...
  4e:	0000                	unimp
  50:	001c                	0x1c
  52:	0000                	unimp
  54:	0002                	c.slli64	zero
  56:	0000038b          	0x38b
  5a:	0004                	0x4
  5c:	0000                	unimp
  5e:	0000                	unimp
  60:	008c                	addi	a1,sp,64
  62:	0001                	nop
  64:	00bc                	addi	a5,sp,72
	...

Disassembly of section .debug_info:

00000000 <.debug_info>:
   0:	0000023f 00000004 	0x40000023f
   8:	0000                	unimp
   a:	0104                	addi	s1,sp,128
   c:	0048                	addi	a0,sp,4
   e:	0000                	unimp
  10:	230c                	fld	fa1,0(a4)
  12:	0000                	unimp
  14:	f100                	fsw	fs0,32(a0)
	...
  22:	0000                	unimp
  24:	0200                	addi	s0,sp,256
  26:	0000                	unimp
  28:	0000                	unimp
  2a:	0f02                	c.slli64	t5
  2c:	3116                	fld	ft2,352(sp)
  2e:	0000                	unimp
  30:	0300                	addi	s0,sp,384
  32:	0704                	addi	s1,sp,896
  34:	0005                	c.nop	1
  36:	0000                	unimp
  38:	3602                	fld	fa2,32(sp)
  3a:	0001                	nop
  3c:	0200                	addi	s0,sp,256
  3e:	1610                	addi	a2,sp,800
  40:	0031                	c.nop	12
  42:	0000                	unimp
  44:	0404                	addi	s1,sp,512
  46:	94090d03          	lb	s10,-1728(s2)
  4a:	0000                	unimp
  4c:	0500                	addi	s0,sp,640
  4e:	0061                	c.nop	24
  50:	25080f03          	lb	t5,592(a6)
  54:	0000                	unimp
  56:	0400                	addi	s0,sp,512
  58:	130d                	addi	t1,t1,-29
  5a:	0500                	addi	s0,sp,640
  5c:	0062                	c.slli	zero,0x18
  5e:	25081003          	lh	zero,592(a6)
  62:	0000                	unimp
  64:	0400                	addi	s0,sp,512
  66:	1201                	addi	tp,tp,-32
  68:	0500                	addi	s0,sp,640
  6a:	11030063          	beq	t1,a6,16a <main-0xfeea>
  6e:	2508                	fld	fa0,8(a0)
  70:	0000                	unimp
  72:	0400                	addi	s0,sp,512
  74:	1002                	c.slli	zero,0x20
  76:	0500                	addi	s0,sp,640
  78:	0064                	addi	s1,sp,12
  7a:	25081203          	lh	tp,592(a6)
  7e:	0000                	unimp
  80:	0400                	addi	s0,sp,512
  82:	040c                	addi	a1,sp,512
  84:	0500                	addi	s0,sp,640
  86:	0065                	c.nop	25
  88:	25081303          	lh	t1,592(a6)
  8c:	0000                	unimp
  8e:	0400                	addi	s0,sp,512
  90:	0004                	0x4
  92:	0000                	unimp
  94:	3202                	fld	ft4,32(sp)
  96:	0000                	unimp
  98:	0300                	addi	s0,sp,384
  9a:	0214                	addi	a3,sp,256
  9c:	0044                	addi	s1,sp,4
  9e:	0000                	unimp
  a0:	1804                	addi	s1,sp,48
  a2:	f2091703          	lh	a4,-224(s2)
  a6:	0000                	unimp
  a8:	0600                	addi	s0,sp,768
  aa:	6161                	addi	sp,sp,80
  ac:	0300                	addi	s0,sp,384
  ae:	0919                	addi	s2,s2,6
  b0:	0025                	c.nop	9
  b2:	0000                	unimp
  b4:	0600                	addi	s0,sp,768
  b6:	6262                	flw	ft4,24(sp)
  b8:	0300                	addi	s0,sp,384
  ba:	091a                	slli	s2,s2,0x6
  bc:	0025                	c.nop	9
  be:	0000                	unimp
  c0:	0604                	addi	s1,sp,768
  c2:	03006363          	bltu	zero,a6,e8 <main-0xff6c>
  c6:	0038091b          	0x38091b
  ca:	0000                	unimp
  cc:	0608                	addi	a0,sp,768
  ce:	6464                	flw	fs1,76(s0)
  d0:	0300                	addi	s0,sp,384
  d2:	091c                	addi	a5,sp,144
  d4:	0038                	addi	a4,sp,8
  d6:	0000                	unimp
  d8:	060c                	addi	a1,sp,768
  da:	6565                	lui	a0,0x19
  dc:	0300                	addi	s0,sp,384
  de:	091d                	addi	s2,s2,7
  e0:	0038                	addi	a4,sp,8
  e2:	0000                	unimp
  e4:	0610                	addi	a2,sp,768
  e6:	6666                	flw	fa2,88(sp)
  e8:	0300                	addi	s0,sp,384
  ea:	091e                	slli	s2,s2,0x7
  ec:	0038                	addi	a4,sp,8
  ee:	0000                	unimp
  f0:	0014                	0x14
  f2:	3e02                	fld	ft8,32(sp)
  f4:	0000                	unimp
  f6:	0300                	addi	s0,sp,384
  f8:	021f 00a0 0000      	0xa0021f
  fe:	0000e507          	0xe507
 102:	0100                	addi	s0,sp,128
 104:	00800623          	sb	s0,12(zero) # c <main-0x10048>
 108:	0001                	nop
 10a:	0008                	0x8
 10c:	0000                	unimp
 10e:	9c01                	0x9c01
 110:	014d                	addi	sp,sp,19
 112:	0000                	unimp
 114:	ec08                	fsw	fa0,24(s0)
 116:	0000                	unimp
 118:	0100                	addi	s0,sp,128
 11a:	014d1123          	sh	s4,2(s10)
 11e:	0000                	unimp
 120:	0000                	unimp
 122:	0000                	unimp
 124:	3b08                	fld	fa0,48(a4)
 126:	0001                	nop
 128:	0100                	addi	s0,sp,128
 12a:	01541e23          	sh	s5,28(s0)
 12e:	0000                	unimp
 130:	0021                	c.nop	8
 132:	0000                	unimp
 134:	8609                	srai	a2,a2,0x2
 136:	0100                	addi	s0,sp,128
 138:	6700                	flw	fs0,8(a4)
 13a:	0001                	nop
 13c:	0a00                	addi	s0,sp,272
 13e:	5a01                	li	s4,-32
 140:	5a01f303          	0x5a01f303
 144:	010a                	slli	sp,sp,0x2
 146:	01f3035b          	0x1f3035b
 14a:	0b00005b          	0xb00005b
 14e:	0504                	addi	s1,sp,640
 150:	6e69                	lui	t3,0x1a
 152:	0074                	addi	a3,sp,12
 154:	040c                	addi	a1,sp,512
 156:	015a                	slli	sp,sp,0x16
 158:	0000                	unimp
 15a:	040c                	addi	a1,sp,512
 15c:	0160                	addi	s0,sp,140
 15e:	0000                	unimp
 160:	39080103          	lb	sp,912(a6)
 164:	0000                	unimp
 166:	0d00                	addi	s0,sp,656
 168:	0018                	0x18
 16a:	0000                	unimp
 16c:	1801                	addi	a6,a6,-32
 16e:	4d05                	li	s10,1
 170:	0001                	nop
 172:	5400                	lw	s0,40(s0)
 174:	0100                	addi	s0,sp,128
 176:	1400                	addi	s0,sp,544
 178:	0000                	unimp
 17a:	0100                	addi	s0,sp,128
 17c:	cb9c                	sw	a5,16(a5)
 17e:	0001                	nop
 180:	0800                	addi	s0,sp,16
 182:	00ec                	addi	a1,sp,76
 184:	0000                	unimp
 186:	1801                	addi	a6,a6,-32
 188:	4d0e                	lw	s10,192(sp)
 18a:	0001                	nop
 18c:	4200                	lw	s0,0(a2)
 18e:	0000                	unimp
 190:	0800                	addi	s0,sp,16
 192:	0000013b          	0x13b
 196:	1801                	addi	a6,a6,-32
 198:	0001541b          	0x1541b
 19c:	6300                	flw	fs0,0(a4)
 19e:	0000                	unimp
 1a0:	0e00                	addi	s0,sp,784
 1a2:	012c                	addi	a1,sp,136
 1a4:	0000                	unimp
 1a6:	1a01                	addi	s4,s4,-32
 1a8:	0000310f          	0x310f
 1ac:	8400                	0x8400
 1ae:	0000                	unimp
 1b0:	0e00                	addi	s0,sp,784
 1b2:	0131                	addi	sp,sp,12
 1b4:	0000                	unimp
 1b6:	1b01                	addi	s6,s6,-32
 1b8:	0000310f          	0x310f
 1bc:	b400                	fsd	fs0,40(s0)
 1be:	0000                	unimp
 1c0:	0f00                	addi	s0,sp,912
 1c2:	0064                	addi	s1,sp,12
 1c4:	0001                	nop
 1c6:	000001cb          	fnmsub.s	ft3,ft0,ft0,ft0,rne
 1ca:	1000                	addi	s0,sp,32
 1cc:	6162                	flw	ft2,24(sp)
 1ce:	0072                	c.slli	zero,0x1c
 1d0:	0801                	addi	a6,a6,0
 1d2:	6806                	flw	fa6,64(sp)
 1d4:	0100                	addi	s0,sp,128
 1d6:	1800                	addi	s0,sp,48
 1d8:	0000                	unimp
 1da:	0100                	addi	s0,sp,128
 1dc:	369c                	fld	fa5,40(a3)
 1de:	0002                	c.slli64	zero
 1e0:	0800                	addi	s0,sp,16
 1e2:	012c                	addi	a1,sp,136
 1e4:	0000                	unimp
 1e6:	0801                	addi	a6,a6,0
 1e8:	0000250f          	0x250f
 1ec:	d700                	sw	s0,40(a4)
 1ee:	0000                	unimp
 1f0:	0800                	addi	s0,sp,16
 1f2:	0131                	addi	sp,sp,12
 1f4:	0000                	unimp
 1f6:	0801                	addi	a6,a6,0
 1f8:	251a                	fld	fa0,384(sp)
 1fa:	0000                	unimp
 1fc:	f800                	fsw	fs0,48(s0)
 1fe:	0000                	unimp
 200:	1100                	addi	s0,sp,160
 202:	0012                	c.slli	zero,0x4
 204:	0000                	unimp
 206:	0c01                	addi	s8,s8,0
 208:	f20d                	bnez	a2,12a <main-0xff2a>
 20a:	0000                	unimp
 20c:	0200                	addi	s0,sp,256
 20e:	5891                	li	a7,-28
 210:	1d11                	addi	s10,s10,-28
 212:	0000                	unimp
 214:	0100                	addi	s0,sp,128
 216:	0a0d                	addi	s4,s4,3
 218:	0094                	addi	a3,sp,64
 21a:	0000                	unimp
 21c:	9102                	jalr	sp
 21e:	0954                	addi	a3,sp,148
 220:	007c                	addi	a5,sp,12
 222:	0001                	nop
 224:	0236                	slli	tp,tp,0xd
 226:	0000                	unimp
 228:	010a                	slli	sp,sp,0x2
 22a:	025a                	slli	tp,tp,0x16
 22c:	6491                	lui	s1,0x4
 22e:	010a                	slli	sp,sp,0x2
 230:	6891025b          	0x6891025b
 234:	0000                	unimp
 236:	6612                	flw	fa2,4(sp)
 238:	66006f6f          	jal	t5,6898 <main-0x97bc>
 23c:	03006f6f          	jal	t5,626c <main-0x9de8>
 240:	44000623          	sb	zero,1100(zero) # 44c <main-0xfc08>
 244:	0001                	nop
 246:	0400                	addi	s0,sp,512
 248:	3700                	fld	fs0,40(a4)
 24a:	0001                	nop
 24c:	0400                	addi	s0,sp,512
 24e:	4801                	li	a6,0
 250:	0000                	unimp
 252:	0c00                	addi	s0,sp,528
 254:	0140                	addi	s0,sp,132
 256:	0000                	unimp
 258:	00f1                	addi	ra,ra,28
 25a:	0000                	unimp
 25c:	0020                	addi	s0,sp,8
 25e:	0000                	unimp
 260:	0000                	unimp
 262:	0000                	unimp
 264:	0129                	addi	sp,sp,10
 266:	0000                	unimp
 268:	0002                	c.slli64	zero
 26a:	0000                	unimp
 26c:	0200                	addi	s0,sp,256
 26e:	0031160f          	0x31160f
 272:	0000                	unimp
 274:	05070403          	lb	s0,80(a4)
 278:	0000                	unimp
 27a:	0200                	addi	s0,sp,256
 27c:	0136                	slli	sp,sp,0xd
 27e:	0000                	unimp
 280:	1002                	c.slli	zero,0x20
 282:	3116                	fld	ft2,352(sp)
 284:	0000                	unimp
 286:	0400                	addi	s0,sp,512
 288:	0304                	addi	s1,sp,384
 28a:	090d                	addi	s2,s2,3
 28c:	0094                	addi	a3,sp,64
 28e:	0000                	unimp
 290:	6105                	addi	sp,sp,32
 292:	0300                	addi	s0,sp,384
 294:	0025080f          	0x25080f
 298:	0000                	unimp
 29a:	0d04                	addi	s1,sp,656
 29c:	62050013          	addi	zero,a0,1568 # 19620 <__global_pointer$+0x7be0>
 2a0:	0300                	addi	s0,sp,384
 2a2:	0810                	addi	a2,sp,16
 2a4:	0025                	c.nop	9
 2a6:	0000                	unimp
 2a8:	0104                	addi	s1,sp,128
 2aa:	0012                	c.slli	zero,0x4
 2ac:	6305                	lui	t1,0x1
 2ae:	0300                	addi	s0,sp,384
 2b0:	0811                	addi	a6,a6,4
 2b2:	0025                	c.nop	9
 2b4:	0000                	unimp
 2b6:	0204                	addi	s1,sp,256
 2b8:	0010                	0x10
 2ba:	6405                	lui	s0,0x1
 2bc:	0300                	addi	s0,sp,384
 2be:	0812                	slli	a6,a6,0x4
 2c0:	0025                	c.nop	9
 2c2:	0000                	unimp
 2c4:	0c04                	addi	s1,sp,528
 2c6:	0004                	0x4
 2c8:	6505                	lui	a0,0x1
 2ca:	0300                	addi	s0,sp,384
 2cc:	00250813          	addi	a6,a0,2 # 1002 <main-0xf052>
 2d0:	0000                	unimp
 2d2:	0404                	addi	s1,sp,512
 2d4:	0000                	unimp
 2d6:	0200                	addi	s0,sp,256
 2d8:	0032                	c.slli	zero,0xc
 2da:	0000                	unimp
 2dc:	44021403          	lh	s0,1088(tp) # 440 <main-0xfc14>
 2e0:	0000                	unimp
 2e2:	0600                	addi	s0,sp,768
 2e4:	0094                	addi	a3,sp,64
 2e6:	0000                	unimp
 2e8:	1804                	addi	s1,sp,48
 2ea:	f7091703          	lh	a4,-144(s2)
 2ee:	0000                	unimp
 2f0:	0700                	addi	s0,sp,896
 2f2:	6161                	addi	sp,sp,80
 2f4:	0300                	addi	s0,sp,384
 2f6:	0919                	addi	s2,s2,6
 2f8:	0025                	c.nop	9
 2fa:	0000                	unimp
 2fc:	0700                	addi	s0,sp,896
 2fe:	6262                	flw	ft4,24(sp)
 300:	0300                	addi	s0,sp,384
 302:	091a                	slli	s2,s2,0x6
 304:	0025                	c.nop	9
 306:	0000                	unimp
 308:	0704                	addi	s1,sp,896
 30a:	03006363          	bltu	zero,a6,330 <main-0xfd24>
 30e:	0038091b          	0x38091b
 312:	0000                	unimp
 314:	0708                	addi	a0,sp,896
 316:	6464                	flw	fs1,76(s0)
 318:	0300                	addi	s0,sp,384
 31a:	091c                	addi	a5,sp,144
 31c:	0038                	addi	a4,sp,8
 31e:	0000                	unimp
 320:	070c                	addi	a1,sp,896
 322:	6565                	lui	a0,0x19
 324:	0300                	addi	s0,sp,384
 326:	091d                	addi	s2,s2,7
 328:	0038                	addi	a4,sp,8
 32a:	0000                	unimp
 32c:	0710                	addi	a2,sp,896
 32e:	6666                	flw	fa2,88(sp)
 330:	0300                	addi	s0,sp,384
 332:	091e                	slli	s2,s2,0x7
 334:	0038                	addi	a4,sp,8
 336:	0000                	unimp
 338:	0014                	0x14
 33a:	3e02                	fld	ft8,32(sp)
 33c:	0000                	unimp
 33e:	0300                	addi	s0,sp,384
 340:	021f 00a5 0000      	0xa5021f
 346:	f706                	fsw	ft1,172(sp)
 348:	0000                	unimp
 34a:	0800                	addi	s0,sp,16
 34c:	6f66                	flw	ft10,88(sp)
 34e:	0b01006f          	j	103fe <__riscv_restore_0+0x2ce>
 352:	8806                	mv	a6,ra
 354:	0100                	addi	s0,sp,128
 356:	0200                	addi	s0,sp,256
 358:	0000                	unimp
 35a:	0100                	addi	s0,sp,128
 35c:	3b9c                	fld	fa5,48(a5)
 35e:	0001                	nop
 360:	0900                	addi	s0,sp,144
 362:	0160                	addi	s0,sp,140
 364:	0000                	unimp
 366:	0b01                	addi	s6,s6,0
 368:	3b19                	jal	7e <main-0xffd6>
 36a:	0001                	nop
 36c:	0100                	addi	s0,sp,128
 36e:	095a                	slli	s2,s2,0x16
 370:	0155                	addi	sp,sp,21
 372:	0000                	unimp
 374:	0b01                	addi	s6,s6,0
 376:	4134                	lw	a3,64(a0)
 378:	0001                	nop
 37a:	0100                	addi	s0,sp,128
 37c:	040a005b          	0x40a005b
 380:	00a0                	addi	s0,sp,72
 382:	0000                	unimp
 384:	040a                	slli	s0,s0,0x2
 386:	00000103          	lb	sp,0(zero) # 0 <main-0x10054>
 38a:	2200                	fld	fs0,0(a2)
 38c:	0000                	unimp
 38e:	0200                	addi	s0,sp,256
 390:	d900                	sw	s0,48(a0)
 392:	0001                	nop
 394:	0400                	addi	s0,sp,512
 396:	9301                	srli	a4,a4,0x20
 398:	0001                	nop
 39a:	8c00                	0x8c00
 39c:	0100                	addi	s0,sp,128
 39e:	4800                	lw	s0,16(s0)
 3a0:	0101                	addi	sp,sp,0
 3a2:	6900                	flw	fs0,16(a0)
 3a4:	0001                	nop
 3a6:	bc00                	fsd	fs0,56(s0)
 3a8:	0001                	nop
 3aa:	1b00                	addi	s0,sp,432
 3ac:	0002                	c.slli64	zero
 3ae:	0100                	addi	s0,sp,128
 3b0:	80              	Address 0x00000000000003b0 is out of bounds.


Disassembly of section .debug_abbrev:

00000000 <.debug_abbrev>:
   0:	1101                	addi	sp,sp,-32
   2:	2501                	jal	602 <main-0xfa52>
   4:	130e                	slli	t1,t1,0x23
   6:	1b0e030b          	0x1b0e030b
   a:	550e                	lw	a0,224(sp)
   c:	10011117          	auipc	sp,0x10011
  10:	02000017          	auipc	zero,0x2000
  14:	0016                	c.slli	zero,0x5
  16:	0b3a0e03          	lb	t3,179(s4) # fffe00b3 <__global_pointer$+0xfffce673>
  1a:	0b390b3b          	0xb390b3b
  1e:	1349                	addi	t1,t1,-14
  20:	0000                	unimp
  22:	0b002403          	lw	s0,176(zero) # b0 <main-0xffa4>
  26:	030b3e0b          	0x30b3e0b
  2a:	000e                	c.slli	zero,0x3
  2c:	0400                	addi	s0,sp,512
  2e:	0b0b0113          	addi	sp,s6,176
  32:	0b3a                	slli	s6,s6,0xe
  34:	0b390b3b          	0xb390b3b
  38:	1301                	addi	t1,t1,-32
  3a:	0000                	unimp
  3c:	0d05                	addi	s10,s10,1
  3e:	0300                	addi	s0,sp,384
  40:	3a08                	fld	fa0,48(a2)
  42:	390b3b0b          	0x390b3b0b
  46:	0b13490b          	0xb13490b
  4a:	0c0b0d0b          	0xc0b0d0b
  4e:	000b380b          	0xb380b
  52:	0600                	addi	s0,sp,768
  54:	000d                	c.nop	3
  56:	0b3a0803          	lb	a6,179(s4)
  5a:	0b390b3b          	0xb390b3b
  5e:	1349                	addi	t1,t1,-14
  60:	0b38                	addi	a4,sp,408
  62:	0000                	unimp
  64:	3f012e07          	flw	ft8,1008(sp) # 100113fc <__global_pointer$+0xffff9bc>
  68:	0319                	addi	t1,t1,6
  6a:	3a0e                	fld	fs4,224(sp)
  6c:	390b3b0b          	0x390b3b0b
  70:	1119270b          	0x1119270b
  74:	1201                	addi	tp,tp,-32
  76:	4006                	0x4006
  78:	9718                	0x9718
  7a:	1942                	slli	s2,s2,0x30
  7c:	1301                	addi	t1,t1,-32
  7e:	0000                	unimp
  80:	0508                	addi	a0,sp,640
  82:	0300                	addi	s0,sp,384
  84:	3a0e                	fld	fs4,224(sp)
  86:	390b3b0b          	0x390b3b0b
  8a:	0213490b          	0x213490b
  8e:	09000017          	auipc	zero,0x9000
  92:	8289                	srli	a3,a3,0x2
  94:	0101                	addi	sp,sp,0
  96:	0111                	addi	sp,sp,4
  98:	1331                	addi	t1,t1,-20
  9a:	0000                	unimp
  9c:	8a0a                	mv	s4,sp
  9e:	0182                	c.slli64	gp
  a0:	0200                	addi	s0,sp,256
  a2:	9118                	0x9118
  a4:	1842                	slli	a6,a6,0x30
  a6:	0000                	unimp
  a8:	0b00240b          	0xb00240b
  ac:	030b3e0b          	0x30b3e0b
  b0:	0008                	0x8
  b2:	0c00                	addi	s0,sp,528
  b4:	0b0b000f          	0xb0b000f
  b8:	1349                	addi	t1,t1,-14
  ba:	0000                	unimp
  bc:	2e0d                	jal	3ee <main-0xfc66>
  be:	3f01                	jal	ffffffce <__global_pointer$+0xfffee58e>
  c0:	0319                	addi	t1,t1,6
  c2:	3a0e                	fld	fs4,224(sp)
  c4:	390b3b0b          	0x390b3b0b
  c8:	4919270b          	0x4919270b
  cc:	12011113          	0x12011113
  d0:	4006                	0x4006
  d2:	9718                	0x9718
  d4:	1942                	slli	s2,s2,0x30
  d6:	1301                	addi	t1,t1,-32
  d8:	0000                	unimp
  da:	340e                	fld	fs0,224(sp)
  dc:	0300                	addi	s0,sp,384
  de:	3a0e                	fld	fs4,224(sp)
  e0:	390b3b0b          	0x390b3b0b
  e4:	0213490b          	0x213490b
  e8:	0f000017          	auipc	zero,0xf000
  ec:	8289                	srli	a3,a3,0x2
  ee:	0001                	nop
  f0:	0111                	addi	sp,sp,4
  f2:	1331                	addi	t1,t1,-20
  f4:	0000                	unimp
  f6:	2e10                	fld	fa2,24(a2)
  f8:	3f01                	jal	8 <main-0x1004c>
  fa:	0319                	addi	t1,t1,6
  fc:	3a08                	fld	fa0,48(a2)
  fe:	390b3b0b          	0x390b3b0b
 102:	1119270b          	0x1119270b
 106:	1201                	addi	tp,tp,-32
 108:	4006                	0x4006
 10a:	9718                	0x9718
 10c:	1942                	slli	s2,s2,0x30
 10e:	1301                	addi	t1,t1,-32
 110:	0000                	unimp
 112:	3411                	jal	fffffb16 <__global_pointer$+0xfffee0d6>
 114:	0300                	addi	s0,sp,384
 116:	3a0e                	fld	fs4,224(sp)
 118:	390b3b0b          	0x390b3b0b
 11c:	0213490b          	0x213490b
 120:	0018                	0x18
 122:	1200                	addi	s0,sp,288
 124:	002e                	c.slli	zero,0xb
 126:	193c193f 0803086e 	0x803086e193c193f
 12e:	0b3a                	slli	s6,s6,0xe
 130:	0b390b3b          	0xb390b3b
 134:	0000                	unimp
 136:	0100                	addi	s0,sp,128
 138:	0111                	addi	sp,sp,4
 13a:	0e25                	addi	t3,t3,9
 13c:	0e030b13          	addi	s6,t1,224 # 10e0 <main-0xef74>
 140:	17550e1b          	0x17550e1b
 144:	0111                	addi	sp,sp,4
 146:	1710                	addi	a2,sp,928
 148:	0000                	unimp
 14a:	1602                	slli	a2,a2,0x20
 14c:	0300                	addi	s0,sp,384
 14e:	3a0e                	fld	fs4,224(sp)
 150:	390b3b0b          	0x390b3b0b
 154:	0013490b          	0x13490b
 158:	0300                	addi	s0,sp,384
 15a:	0024                	addi	s1,sp,8
 15c:	0b3e0b0b          	0xb3e0b0b
 160:	00000e03          	lb	t3,0(zero) # 0 <main-0x10054>
 164:	1304                	addi	s1,sp,416
 166:	0b01                	addi	s6,s6,0
 168:	3b0b3a0b          	0x3b0b3a0b
 16c:	010b390b          	0x10b390b
 170:	05000013          	li	zero,80
 174:	000d                	c.nop	3
 176:	0b3a0803          	lb	a6,179(s4)
 17a:	0b390b3b          	0xb390b3b
 17e:	1349                	addi	t1,t1,-14
 180:	0b0d0b0b          	0xb0d0b0b
 184:	0b0c                	addi	a1,sp,400
 186:	0b38                	addi	a4,sp,408
 188:	0000                	unimp
 18a:	2606                	fld	fa2,64(sp)
 18c:	4900                	lw	s0,16(a0)
 18e:	07000013          	li	zero,112
 192:	000d                	c.nop	3
 194:	0b3a0803          	lb	a6,179(s4)
 198:	0b390b3b          	0xb390b3b
 19c:	1349                	addi	t1,t1,-14
 19e:	0b38                	addi	a4,sp,408
 1a0:	0000                	unimp
 1a2:	2e08                	fld	fa0,24(a2)
 1a4:	3f01                	jal	b4 <main-0xffa0>
 1a6:	0319                	addi	t1,t1,6
 1a8:	3a08                	fld	fa0,48(a2)
 1aa:	390b3b0b          	0x390b3b0b
 1ae:	1119270b          	0x1119270b
 1b2:	1201                	addi	tp,tp,-32
 1b4:	4006                	0x4006
 1b6:	9718                	0x9718
 1b8:	1942                	slli	s2,s2,0x30
 1ba:	1301                	addi	t1,t1,-32
 1bc:	0000                	unimp
 1be:	0509                	addi	a0,a0,2
 1c0:	0300                	addi	s0,sp,384
 1c2:	3a0e                	fld	fs4,224(sp)
 1c4:	390b3b0b          	0x390b3b0b
 1c8:	0213490b          	0x213490b
 1cc:	0018                	0x18
 1ce:	0a00                	addi	s0,sp,272
 1d0:	0b0b000f          	0xb0b000f
 1d4:	1349                	addi	t1,t1,-14
 1d6:	0000                	unimp
 1d8:	0100                	addi	s0,sp,128
 1da:	0011                	c.nop	4
 1dc:	0610                	addi	a2,sp,768
 1de:	0111                	addi	sp,sp,4
 1e0:	0112                	slli	sp,sp,0x4
 1e2:	0e1b0e03          	lb	t3,225(s6)
 1e6:	0e25                	addi	t3,t3,9
 1e8:	00000513          	li	a0,0
	...

Disassembly of section .debug_line:

00000000 <.debug_line>:
   0:	0125                	addi	sp,sp,9
   2:	0000                	unimp
   4:	0002                	c.slli64	zero
   6:	0042                	c.slli	zero,0x10
   8:	0000                	unimp
   a:	0101                	addi	sp,sp,0
   c:	000d0efb          	0xd0efb
  10:	0101                	addi	sp,sp,0
  12:	0101                	addi	sp,sp,0
  14:	0000                	unimp
  16:	0100                	addi	s0,sp,128
  18:	0000                	unimp
  1a:	0001                	nop
  1c:	65766173          	csrrsi	sp,0x657,12
  20:	725f 7365 6f74      	0x6f747365725f
  26:	6572                	flw	fa0,28(sp)
  28:	632e                	flw	ft6,200(sp)
  2a:	0000                	unimp
  2c:	0000                	unimp
  2e:	7974                	flw	fa3,116(a0)
  30:	6570                	flw	fa2,76(a0)
  32:	00682e73          	csrrs	t3,0x6,a6
  36:	0000                	unimp
  38:	7300                	flw	fs0,32(a4)
  3a:	7661                	lui	a2,0xffff8
  3c:	5f65                	li	t5,-7
  3e:	6572                	flw	fa0,28(sp)
  40:	726f7473          	csrrci	s0,0x726,30
  44:	2e65                	jal	3fc <main-0xfc58>
  46:	0068                	addi	a0,sp,12
  48:	0000                	unimp
  4a:	0000                	unimp
  4c:	0105                	addi	sp,sp,1
  4e:	0500                	addi	s0,sp,640
  50:	6802                	flw	fa6,0(sp)
  52:	0100                	addi	s0,sp,128
  54:	1a00                	addi	s0,sp,304
  56:	0305                	addi	t1,t1,1
  58:	04090303          	lb	t1,64(s2)
  5c:	0100                	addi	s0,sp,128
  5e:	00090103          	lb	sp,0(s2)
  62:	0100                	addi	s0,sp,128
  64:	00090203          	lb	tp,0(s2)
  68:	0100                	addi	s0,sp,128
  6a:	0b05                	addi	s6,s6,1
  6c:	0306                	slli	t1,t1,0x1
  6e:	0901                	addi	s2,s2,0
  70:	0000                	unimp
  72:	0501                	addi	a0,a0,0
  74:	0301                	addi	t1,t1,0
  76:	0979                	addi	s2,s2,30
  78:	0002                	c.slli64	zero
  7a:	0501                	addi	a0,a0,0
  7c:	0907030b          	0x907030b
  80:	0002                	c.slli64	zero
  82:	0501                	addi	a0,a0,0
  84:	030c                	addi	a1,sp,384
  86:	097f                	0x97f
  88:	0002                	c.slli64	zero
  8a:	0501                	addi	a0,a0,0
  8c:	01030603          	lb	a2,16(t1)
  90:	0209                	addi	tp,tp,2
  92:	0100                	addi	s0,sp,128
  94:	0b05                	addi	s6,s6,1
  96:	0306                	slli	t1,t1,0x1
  98:	0900                	addi	s0,sp,144
  9a:	0000                	unimp
  9c:	0501                	addi	a0,a0,0
  9e:	02030603          	lb	a2,32(t1)
  a2:	0209                	addi	tp,tp,2
  a4:	0100                	addi	s0,sp,128
  a6:	0105                	addi	sp,sp,1
  a8:	0306                	slli	t1,t1,0x1
  aa:	0901                	addi	s2,s2,0
  ac:	0006                	c.slli	zero,0x1
  ae:	0901                	addi	s2,s2,0
  b0:	0004                	0x4
  b2:	0100                	addi	s0,sp,128
  b4:	0501                	addi	a0,a0,0
  b6:	0001                	nop
  b8:	0205                	addi	tp,tp,1
  ba:	0054                	addi	a3,sp,4
  bc:	0001                	nop
  be:	05011803          	lh	a6,80(sp)
  c2:	0302                	c.slli64	t1
  c4:	0901                	addi	s2,s2,0
  c6:	0004                	0x4
  c8:	0301                	addi	t1,t1,0
  ca:	0901                	addi	s2,s2,0
  cc:	0000                	unimp
  ce:	0301                	addi	t1,t1,0
  d0:	0901                	addi	s2,s2,0
  d2:	0000                	unimp
  d4:	0301                	addi	t1,t1,0
  d6:	0901                	addi	s2,s2,0
  d8:	0000                	unimp
  da:	0301                	addi	t1,t1,0
  dc:	0902                	c.slli64	s2
  de:	0000                	unimp
  e0:	0501                	addi	a0,a0,0
  e2:	7e030607          	0x7e030607
  e6:	0009                	c.nop	2
  e8:	0100                	addi	s0,sp,128
  ea:	02097f03          	0x2097f03
  ee:	0100                	addi	s0,sp,128
  f0:	0205                	addi	tp,tp,1
  f2:	02090303          	lb	t1,32(s2)
  f6:	0100                	addi	s0,sp,128
  f8:	0105                	addi	sp,sp,1
  fa:	08090103          	lb	sp,128(s2)
  fe:	0100                	addi	s0,sp,128
 100:	0409                	addi	s0,s0,2
 102:	0000                	unimp
 104:	0101                	addi	sp,sp,0
 106:	0105                	addi	sp,sp,1
 108:	0500                	addi	s0,sp,640
 10a:	8002                	0x8002
 10c:	0100                	addi	s0,sp,128
 10e:	0300                	addi	s0,sp,384
 110:	02050123          	sb	zero,34(a0) # 19022 <__global_pointer$+0x75e2>
 114:	04090103          	lb	sp,64(s2)
 118:	0100                	addi	s0,sp,128
 11a:	0105                	addi	sp,sp,1
 11c:	0306                	slli	t1,t1,0x1
 11e:	0901                	addi	s2,s2,0
 120:	0002                	c.slli64	zero
 122:	0901                	addi	s2,s2,0
 124:	0002                	c.slli64	zero
 126:	0100                	addi	s0,sp,128
 128:	6601                	0x6601
 12a:	0000                	unimp
 12c:	0200                	addi	s0,sp,256
 12e:	4800                	lw	s0,16(s0)
 130:	0000                	unimp
 132:	0100                	addi	s0,sp,128
 134:	fb01                	bnez	a4,44 <main-0x10010>
 136:	0d0e                	slli	s10,s10,0x3
 138:	0100                	addi	s0,sp,128
 13a:	0101                	addi	sp,sp,0
 13c:	0001                	nop
 13e:	0000                	unimp
 140:	0001                	nop
 142:	0100                	addi	s0,sp,128
 144:	7300                	flw	fs0,32(a4)
 146:	7661                	lui	a2,0xffff8
 148:	5f65                	li	t5,-7
 14a:	6572                	flw	fa0,28(sp)
 14c:	726f7473          	csrrci	s0,0x726,30
 150:	5f65                	li	t5,-7
 152:	6966                	flw	fs2,88(sp)
 154:	656c                	flw	fa1,76(a0)
 156:	2e32                	fld	ft8,264(sp)
 158:	00000063          	beqz	zero,158 <main-0xfefc>
 15c:	7400                	flw	fs0,40(s0)
 15e:	7079                	c.lui	zero,0xffffe
 160:	7365                	lui	t1,0xffff9
 162:	682e                	flw	fa6,200(sp)
 164:	0000                	unimp
 166:	0000                	unimp
 168:	65766173          	csrrsi	sp,0x657,12
 16c:	725f 7365 6f74      	0x6f747365725f
 172:	6572                	flw	fa0,28(sp)
 174:	682e                	flw	fa6,200(sp)
 176:	0000                	unimp
 178:	0000                	unimp
 17a:	0500                	addi	s0,sp,640
 17c:	0001                	nop
 17e:	0205                	addi	tp,tp,1
 180:	0088                	addi	a0,sp,64
 182:	0001                	nop
 184:	03010b03          	lb	s6,48(sp)
 188:	0902                	c.slli64	s2
 18a:	0000                	unimp
 18c:	0901                	addi	s2,s2,0
 18e:	0002                	c.slli64	zero
 190:	0100                	addi	s0,sp,128
 192:	9401                	srai	s0,s0,0x20
 194:	0001                	nop
 196:	0200                	addi	s0,sp,256
 198:	6900                	flw	fs0,16(a0)
 19a:	0000                	unimp
 19c:	0100                	addi	s0,sp,128
 19e:	fb01                	bnez	a4,ae <main-0xffa6>
 1a0:	0d0e                	slli	s10,s10,0x3
 1a2:	0100                	addi	s0,sp,128
 1a4:	0101                	addi	sp,sp,0
 1a6:	0001                	nop
 1a8:	0000                	unimp
 1aa:	0001                	nop
 1ac:	0100                	addi	s0,sp,128
 1ae:	2e2e                	fld	ft8,200(sp)
 1b0:	2f2e2e2f          	0x2f2e2e2f
 1b4:	2e2e                	fld	ft8,200(sp)
 1b6:	2f2e2e2f          	0x2f2e2e2f
 1ba:	2e2e                	fld	ft8,200(sp)
 1bc:	2f2e2e2f          	0x2f2e2e2f
 1c0:	6972                	flw	fs2,28(sp)
 1c2:	2d766373          	csrrsi	t1,0x2d7,12
 1c6:	2d756e67          	0x2d756e67
 1ca:	6f74                	flw	fa3,92(a4)
 1cc:	68636c6f          	jal	s8,36852 <__global_pointer$+0x24e12>
 1d0:	6961                	lui	s2,0x18
 1d2:	2f6e                	fld	ft10,216(sp)
 1d4:	6972                	flw	fs2,28(sp)
 1d6:	2d766373          	csrrsi	t1,0x2d7,12
 1da:	2f636367          	0x2f636367
 1de:	696c                	flw	fa1,84(a0)
 1e0:	6762                	flw	fa4,24(sp)
 1e2:	632f6363          	bltu	t5,s2,808 <main-0xf84c>
 1e6:	69666e6f          	jal	t3,6687c <__global_pointer$+0x54e3c>
 1ea:	69722f67          	0x69722f67
 1ee:	00766373          	csrrsi	t1,0x7,12
 1f2:	7300                	flw	fs0,32(a4)
 1f4:	7661                	lui	a2,0xffff8
 1f6:	2d65                	jal	8ae <main-0xf7a6>
 1f8:	6572                	flw	fa0,28(sp)
 1fa:	726f7473          	csrrci	s0,0x726,30
 1fe:	2e65                	jal	5b6 <main-0xfa9e>
 200:	00010053          	fadd.s	ft0,ft2,ft0,rne
 204:	0000                	unimp
 206:	0500                	addi	s0,sp,640
 208:	8c02                	jr	s8
 20a:	0100                	addi	s0,sp,128
 20c:	0300                	addi	s0,sp,384
 20e:	02d6                	slli	t0,t0,0x15
 210:	0301                	addi	t1,t1,0
 212:	0902                	c.slli64	s2
 214:	0004                	0x4
 216:	0301                	addi	t1,t1,0
 218:	0901                	addi	s2,s2,0
 21a:	0004                	0x4
 21c:	0301                	addi	t1,t1,0
 21e:	0902                	c.slli64	s2
 220:	0004                	0x4
 222:	0301                	addi	t1,t1,0
 224:	00040907          	0x40907
 228:	0301                	addi	t1,t1,0
 22a:	0902                	c.slli64	s2
 22c:	0004                	0x4
 22e:	0301                	addi	t1,t1,0
 230:	0902                	c.slli64	s2
 232:	0004                	0x4
 234:	0301                	addi	t1,t1,0
 236:	0902                	c.slli64	s2
 238:	0004                	0x4
 23a:	0301                	addi	t1,t1,0
 23c:	0902                	c.slli64	s2
 23e:	0004                	0x4
 240:	0301                	addi	t1,t1,0
 242:	0902                	c.slli64	s2
 244:	0004                	0x4
 246:	0301                	addi	t1,t1,0
 248:	0902                	c.slli64	s2
 24a:	0004                	0x4
 24c:	0301                	addi	t1,t1,0
 24e:	0004090b          	0x4090b
 252:	0301                	addi	t1,t1,0
 254:	0902                	c.slli64	s2
 256:	0004                	0x4
 258:	0301                	addi	t1,t1,0
 25a:	0902                	c.slli64	s2
 25c:	0004                	0x4
 25e:	0301                	addi	t1,t1,0
 260:	0902                	c.slli64	s2
 262:	0004                	0x4
 264:	0301                	addi	t1,t1,0
 266:	0902                	c.slli64	s2
 268:	0004                	0x4
 26a:	0301                	addi	t1,t1,0
 26c:	0902                	c.slli64	s2
 26e:	0004                	0x4
 270:	0301                	addi	t1,t1,0
 272:	0902                	c.slli64	s2
 274:	0004                	0x4
 276:	0301                	addi	t1,t1,0
 278:	0902                	c.slli64	s2
 27a:	0004                	0x4
 27c:	0301                	addi	t1,t1,0
 27e:	0902                	c.slli64	s2
 280:	0004                	0x4
 282:	0301                	addi	t1,t1,0
 284:	0902                	c.slli64	s2
 286:	0004                	0x4
 288:	0301                	addi	t1,t1,0
 28a:	0904                	addi	s1,sp,144
 28c:	0004                	0x4
 28e:	0301                	addi	t1,t1,0
 290:	0901                	addi	s2,s2,0
 292:	0004                	0x4
 294:	0301                	addi	t1,t1,0
 296:	00040913          	mv	s2,s0
 29a:	0301                	addi	t1,t1,0
 29c:	0902                	c.slli64	s2
 29e:	0004                	0x4
 2a0:	0301                	addi	t1,t1,0
 2a2:	0901                	addi	s2,s2,0
 2a4:	0004                	0x4
 2a6:	0301                	addi	t1,t1,0
 2a8:	0902                	c.slli64	s2
 2aa:	0004                	0x4
 2ac:	0301                	addi	t1,t1,0
 2ae:	0902                	c.slli64	s2
 2b0:	0004                	0x4
 2b2:	0301                	addi	t1,t1,0
 2b4:	0902                	c.slli64	s2
 2b6:	0004                	0x4
 2b8:	0301                	addi	t1,t1,0
 2ba:	00040917          	auipc	s2,0x40
 2be:	0301                	addi	t1,t1,0
 2c0:	0902                	c.slli64	s2
 2c2:	0004                	0x4
 2c4:	0301                	addi	t1,t1,0
 2c6:	0908                	addi	a0,sp,144
 2c8:	0004                	0x4
 2ca:	0301                	addi	t1,t1,0
 2cc:	0902                	c.slli64	s2
 2ce:	0004                	0x4
 2d0:	0301                	addi	t1,t1,0
 2d2:	0902                	c.slli64	s2
 2d4:	0004                	0x4
 2d6:	0301                	addi	t1,t1,0
 2d8:	0902                	c.slli64	s2
 2da:	0004                	0x4
 2dc:	0301                	addi	t1,t1,0
 2de:	0902                	c.slli64	s2
 2e0:	0004                	0x4
 2e2:	0301                	addi	t1,t1,0
 2e4:	090c                	addi	a1,sp,144
 2e6:	0004                	0x4
 2e8:	0301                	addi	t1,t1,0
 2ea:	0902                	c.slli64	s2
 2ec:	0004                	0x4
 2ee:	0301                	addi	t1,t1,0
 2f0:	0902                	c.slli64	s2
 2f2:	0004                	0x4
 2f4:	0301                	addi	t1,t1,0
 2f6:	0902                	c.slli64	s2
 2f8:	0004                	0x4
 2fa:	0301                	addi	t1,t1,0
 2fc:	0902                	c.slli64	s2
 2fe:	0004                	0x4
 300:	0301                	addi	t1,t1,0
 302:	0004090f          	0x4090f
 306:	0301                	addi	t1,t1,0
 308:	0902                	c.slli64	s2
 30a:	0004                	0x4
 30c:	0301                	addi	t1,t1,0
 30e:	0902                	c.slli64	s2
 310:	0004                	0x4
 312:	0301                	addi	t1,t1,0
 314:	0902                	c.slli64	s2
 316:	0004                	0x4
 318:	0301                	addi	t1,t1,0
 31a:	0902                	c.slli64	s2
 31c:	0004                	0x4
 31e:	0301                	addi	t1,t1,0
 320:	0902                	c.slli64	s2
 322:	0004                	0x4
 324:	0901                	addi	s2,s2,0
 326:	0004                	0x4
 328:	0100                	addi	s0,sp,128
 32a:	01              	Address 0x000000000000032a is out of bounds.


Disassembly of section .debug_frame:

00000000 <.debug_frame>:
   0:	000c                	0xc
   2:	0000                	unimp
   4:	ffff                	0xffff
   6:	ffff                	0xffff
   8:	0001                	nop
   a:	7c01                	lui	s8,0xfffe0
   c:	0d01                	addi	s10,s10,0
   e:	0002                	c.slli64	zero
  10:	001c                	0x1c
  12:	0000                	unimp
  14:	0000                	unimp
  16:	0000                	unimp
  18:	0068                	addi	a0,sp,12
  1a:	0001                	nop
  1c:	0018                	0x18
  1e:	0000                	unimp
  20:	8144                	0x8144
  22:	0e01                	addi	t3,t3,0
  24:	4410                	lw	a2,8(s0)
  26:	300e                	fld	ft0,224(sp)
  28:	0e4e                	slli	t3,t3,0x13
  2a:	4200                	lw	s0,0(a2)
  2c:	13c1                	addi	t2,t2,-16
  2e:	0004                	0x4
  30:	0018                	0x18
  32:	0000                	unimp
  34:	0000                	unimp
  36:	0000                	unimp
  38:	0054                	addi	a3,sp,4
  3a:	0001                	nop
  3c:	0014                	0x14
  3e:	0000                	unimp
  40:	8144                	0x8144
  42:	0e01                	addi	t3,t3,0
  44:	5010                	lw	a2,32(s0)
  46:	0ec1                	addi	t4,t4,16
  48:	0000                	unimp
  4a:	0000                	unimp
  4c:	0018                	0x18
  4e:	0000                	unimp
  50:	0000                	unimp
  52:	0000                	unimp
  54:	0080                	addi	s0,sp,64
  56:	0001                	nop
  58:	0008                	0x8
  5a:	0000                	unimp
  5c:	8144                	0x8144
  5e:	0e01                	addi	t3,t3,0
  60:	4410                	lw	a2,8(s0)
  62:	0ec1                	addi	t4,t4,16
  64:	0000                	unimp
  66:	0000                	unimp
  68:	000c                	0xc
  6a:	0000                	unimp
  6c:	ffff                	0xffff
  6e:	ffff                	0xffff
  70:	0001                	nop
  72:	7c01                	lui	s8,0xfffe0
  74:	0d01                	addi	s10,s10,0
  76:	0002                	c.slli64	zero
  78:	000c                	0xc
  7a:	0000                	unimp
  7c:	0068                	addi	a0,sp,12
  7e:	0000                	unimp
  80:	0088                	addi	a0,sp,64
  82:	0001                	nop
  84:	0002                	c.slli64	zero
	...

Disassembly of section .debug_str:

00000000 <.debug_str>:
   0:	5f55                	li	t5,-11
   2:	75003233          	0x75003233
   6:	736e                	flw	ft6,248(sp)
   8:	6769                	lui	a4,0x1a
   a:	656e                	flw	fa0,216(sp)
   c:	2064                	fld	fs1,192(s0)
   e:	6e69                	lui	t3,0x1a
  10:	0074                	addi	a3,sp,12
  12:	6e49                	lui	t3,0x12
  14:	7570                	flw	fa2,108(a0)
  16:	0074                	addi	a3,sp,12
  18:	616d                	addi	sp,sp,240
  1a:	6e69                	lui	t3,0x1a
  1c:	7000                	flw	fs0,32(s0)
  1e:	6241                	lui	tp,0x10
  20:	73006463          	bltu	zero,a6,748 <main-0xf90c>
  24:	7661                	lui	a2,0xffff8
  26:	5f65                	li	t5,-7
  28:	6572                	flw	fa0,28(sp)
  2a:	726f7473          	csrrci	s0,0x726,30
  2e:	2e65                	jal	3e6 <main-0xfc6e>
  30:	5f530063          	beq	t1,s5,610 <main-0xfa44>
  34:	4241                	li	tp,16
  36:	63004443          	fmadd.d	fs0,ft0,fa6,fa2,rmm
  3a:	6168                	flw	fa0,68(a0)
  3c:	0072                	c.slli	zero,0x1c
  3e:	45535f53          	0x45535f53
  42:	52415f43          	fmadd.d	ft10,ft2,ft4,fa0,unknown
  46:	4e470047          	fmsub.q	ft0,fa4,ft4,fs1,rne
  4a:	2055                	jal	ee <main-0xff66>
  4c:	20393943          	fmadd.s	fs2,fs2,ft3,ft4,rup
  50:	2e38                	fld	fa4,88(a2)
  52:	2e32                	fld	ft8,264(sp)
  54:	2030                	fld	fa2,64(s0)
  56:	6d2d                	lui	s10,0xb
  58:	65766173          	csrrsi	sp,0x657,12
  5c:	722d                	lui	tp,0xfffeb
  5e:	7365                	lui	t1,0xffff9
  60:	6f74                	flw	fa3,92(a4)
  62:	6572                	flw	fa0,28(sp)
  64:	2d20                	fld	fs0,88(a0)
  66:	616d                	addi	sp,sp,240
  68:	6372                	flw	ft6,28(sp)
  6a:	3d68                	fld	fa0,248(a0)
  6c:	7672                	flw	fa2,60(sp)
  6e:	6d693233          	0x6d693233
  72:	6d2d2063          	0x6d2d2063
  76:	6261                	lui	tp,0x18
  78:	3d69                	jal	ffffff12 <__global_pointer$+0xfffee4d2>
  7a:	6c69                	lui	s8,0x1a
  7c:	3370                	fld	fa2,224(a4)
  7e:	2032                	fld	ft0,264(sp)
  80:	6d2d                	lui	s10,0xb
  82:	646f6d63          	bltu	t5,t1,6dc <main-0xf978>
  86:	6c65                	lui	s8,0x19
  88:	6d3d                	lui	s10,0xf
  8a:	6465                	lui	s0,0x19
  8c:	6e61                	lui	t3,0x18
  8e:	2079                	jal	11c <main-0xff38>
  90:	672d                	lui	a4,0xb
  92:	2d20                	fld	fs0,88(a0)
  94:	2d20734f          	0x2d20734f
  98:	3d647473          	csrrci	s0,0x3d6,8
  9c:	39756e67          	0x39756e67
  a0:	2039                	jal	ae <main-0xffa6>
  a2:	662d                	lui	a2,0xb
  a4:	65736367          	0x65736367
  a8:	6c2d                	lui	s8,0xb
  aa:	7361                	lui	t1,0xffff8
  ac:	2d20                	fld	fs0,88(a0)
  ae:	6466                	flw	fs0,88(sp)
  b0:	7461                	lui	s0,0xffff8
  b2:	2d61                	jal	74a <main-0xf90a>
  b4:	74636573          	csrrsi	a0,0x746,6
  b8:	6f69                	lui	t5,0x1a
  ba:	736e                	flw	ft6,248(sp)
  bc:	2d20                	fld	fs0,88(a0)
  be:	6e66                	flw	ft8,88(sp)
  c0:	75622d6f          	jal	s10,22816 <__global_pointer$+0x10dd6>
  c4:	6c69                	lui	s8,0x1a
  c6:	6974                	flw	fa3,84(a0)
  c8:	2d6e                	fld	fs10,216(sp)
  ca:	7270                	flw	fa2,100(a2)
  cc:	6e69                	lui	t3,0x1a
  ce:	6674                	flw	fa3,76(a2)
  d0:	2d20                	fld	fs0,88(a0)
  d2:	6666                	flw	fa2,88(sp)
  d4:	6e75                	lui	t3,0x1d
  d6:	6f697463          	bgeu	s2,s6,7be <main-0xf896>
  da:	2d6e                	fld	fs10,216(sp)
  dc:	74636573          	csrrsi	a0,0x746,6
  e0:	6f69                	lui	t5,0x1a
  e2:	736e                	flw	ft6,248(sp)
  e4:	5f00                	lw	s0,56(a4)
  e6:	72617473          	csrrci	s0,0x726,2
  ea:	0074                	addi	a3,sp,12
  ec:	7261                	lui	tp,0xffff8
  ee:	2f006367          	0x2f006367
  f2:	6f68                	flw	fa0,92(a4)
  f4:	656d                	lui	a0,0x1b
  f6:	68736f2f          	0x68736f2f
  fa:	6e69                	lui	t3,0x1a
  fc:	6161                	addi	sp,sp,80
  fe:	2f72                	fld	ft10,280(sp)
 100:	6972                	flw	fs2,28(sp)
 102:	2f766373          	csrrsi	t1,0x2f7,12
 106:	6972                	flw	fs2,28(sp)
 108:	33766373          	csrrsi	t1,mhpmevent23,12
 10c:	2d32                	fld	fs10,264(sp)
 10e:	65646f43          	0x65646f43
 112:	642d                	lui	s0,0xb
 114:	6e65                	lui	t3,0x19
 116:	79746973          	csrrsi	s2,0x797,8
 11a:	742d                	lui	s0,0xfffeb
 11c:	7365                	lui	t1,0xffff9
 11e:	2d74                	fld	fa3,216(a0)
 120:	6562                	flw	fa0,24(sp)
 122:	636e                	flw	ft6,216(sp)
 124:	2f68                	fld	fa0,216(a4)
 126:	6574                	flw	fa3,76(a0)
 128:	00317473          	csrrci	s0,fcsr,2
 12c:	7261                	lui	tp,0xffff8
 12e:	61003167          	0x61003167
 132:	6772                	flw	fa4,28(sp)
 134:	0032                	c.slli	zero,0xc
 136:	5f55                	li	t5,-11
 138:	3631                	jal	fffffc44 <__global_pointer$+0xfffee204>
 13a:	6100                	flw	fs0,0(a0)
 13c:	6772                	flw	fa4,28(sp)
 13e:	0076                	c.slli	zero,0x1d
 140:	65766173          	csrrsi	sp,0x657,12
 144:	725f 7365 6f74      	0x6f747365725f
 14a:	6572                	flw	fa0,28(sp)
 14c:	665f 6c69 3265      	0x32656c69665f
 152:	632e                	flw	ft6,200(sp)
 154:	6100                	flw	fs0,0(a0)
 156:	6772                	flw	fa4,28(sp)
 158:	496e6d43          	fmadd.s	fs10,ft8,fs6,fs1,unknown
 15c:	5f6e                	lw	t5,248(sp)
 15e:	0070                	addi	a2,sp,12
 160:	7261                	lui	tp,0xffff8
 162:	64644167          	0x64644167
 166:	705f 2e00 2f2e      	0x2f2e2e00705f
 16c:	2e2e                	fld	ft8,200(sp)
 16e:	2f2e2e2f          	0x2f2e2e2f
 172:	2e2e                	fld	ft8,200(sp)
 174:	2f2e2e2f          	0x2f2e2e2f
 178:	2e2e                	fld	ft8,200(sp)
 17a:	7369722f          	0x7369722f
 17e:	672d7663          	bgeu	s10,s2,7ea <main-0xf86a>
 182:	756e                	flw	fa0,248(sp)
 184:	742d                	lui	s0,0xfffeb
 186:	636c6f6f          	jal	t5,c67bc <__global_pointer$+0xb4d7c>
 18a:	6168                	flw	fa0,68(a0)
 18c:	6e69                	lui	t3,0x1a
 18e:	7369722f          	0x7369722f
 192:	672d7663          	bgeu	s10,s2,7fe <main-0xf856>
 196:	6c2f6363          	bltu	t5,sp,85c <main-0xf7f8>
 19a:	6269                	lui	tp,0x1a
 19c:	2f636367          	0x2f636367
 1a0:	666e6f63          	bltu	t3,t1,81e <main-0xf836>
 1a4:	6769                	lui	a4,0x1a
 1a6:	7369722f          	0x7369722f
 1aa:	732f7663          	bgeu	t5,s2,8d6 <main-0xf77e>
 1ae:	7661                	lui	a2,0xffff8
 1b0:	2d65                	jal	868 <main-0xf7ec>
 1b2:	6572                	flw	fa0,28(sp)
 1b4:	726f7473          	csrrci	s0,0x726,30
 1b8:	2e65                	jal	570 <main-0xfae4>
 1ba:	682f0053          	0x682f0053
 1be:	2f656d6f          	jal	s10,564b4 <__global_pointer$+0x44a74>
 1c2:	696e                	flw	fs2,216(sp)
 1c4:	6164                	flw	fs1,68(a0)
 1c6:	2f6c                	fld	fa1,216(a4)
 1c8:	6b726f77          	0x6b726f77
 1cc:	7369722f          	0x7369722f
 1d0:	672f7663          	bgeu	t5,s2,83c <main-0xf818>
 1d4:	756e                	flw	fa0,248(sp)
 1d6:	706d742f          	0x706d742f
 1da:	6975622f          	0x6975622f
 1de:	646c                	flw	fa1,76(s0)
 1e0:	672d                	lui	a4,0xb
 1e2:	6e2d6363          	bltu	s10,sp,8c8 <main-0xf78c>
 1e6:	7765                	lui	a4,0xffff9
 1e8:	696c                	flw	fa1,84(a0)
 1ea:	2d62                	fld	fs10,24(sp)
 1ec:	67617473          	csrrci	s0,0x676,2
 1f0:	3265                	jal	fffffb98 <__global_pointer$+0xfffee158>
 1f2:	7369722f          	0x7369722f
 1f6:	34367663          	bgeu	a2,gp,542 <main-0xfb12>
 1fa:	752d                	lui	a0,0xfffeb
 1fc:	6b6e                	flw	fs6,216(sp)
 1fe:	6f6e                	flw	ft10,216(sp)
 200:	652d6e77          	0x652d6e77
 204:	666c                	flw	fa1,76(a2)
 206:	3376722f          	0x3376722f
 20a:	6932                	flw	fs2,12(sp)
 20c:	2f6d                	jal	9c6 <main-0xf68e>
 20e:	6c69                	lui	s8,0x1a
 210:	3370                	fld	fa2,224(a4)
 212:	2f32                	fld	ft10,264(sp)
 214:	696c                	flw	fa1,84(a0)
 216:	6762                	flw	fa4,24(sp)
 218:	47006363          	bltu	zero,a6,67e <main-0xf9d6>
 21c:	554e                	lw	a0,240(sp)
 21e:	4120                	lw	s0,64(a0)
 220:	2e322053          	0x2e322053
 224:	312e3133          	0x312e3133
	...

Disassembly of section .debug_loc:

00000000 <.debug_loc>:
   0:	0080                	addi	s0,sp,64
   2:	0001                	nop
   4:	0085                	addi	ra,ra,1
   6:	0001                	nop
   8:	0001                	nop
   a:	855a                	mv	a0,s6
   c:	0100                	addi	s0,sp,128
   e:	8800                	0x8800
  10:	0100                	addi	s0,sp,128
  12:	0400                	addi	s0,sp,512
  14:	f300                	fsw	fs0,32(a4)
  16:	5a01                	li	s4,-32
  18:	009f 0000 0000      	0x9f
  1e:	0000                	unimp
  20:	8000                	0x8000
  22:	0100                	addi	s0,sp,128
  24:	8500                	0x8500
  26:	0100                	addi	s0,sp,128
  28:	0100                	addi	s0,sp,128
  2a:	5b00                	lw	s0,48(a4)
  2c:	0085                	addi	ra,ra,1
  2e:	0001                	nop
  30:	0088                	addi	a0,sp,64
  32:	0001                	nop
  34:	0004                	0x4
  36:	9f5b01f3          	0x9f5b01f3
	...
  42:	0054                	addi	a3,sp,4
  44:	0001                	nop
  46:	005c                	addi	a5,sp,4
  48:	0001                	nop
  4a:	0001                	nop
  4c:	5c5a                	lw	s8,180(sp)
  4e:	0100                	addi	s0,sp,128
  50:	6800                	flw	fs0,16(s0)
  52:	0100                	addi	s0,sp,128
  54:	0400                	addi	s0,sp,512
  56:	f300                	fsw	fs0,32(a4)
  58:	5a01                	li	s4,-32
  5a:	009f 0000 0000      	0x9f
  60:	0000                	unimp
  62:	5400                	lw	s0,40(s0)
  64:	0100                	addi	s0,sp,128
  66:	6000                	flw	fs0,0(s0)
  68:	0100                	addi	s0,sp,128
  6a:	0100                	addi	s0,sp,128
  6c:	5b00                	lw	s0,48(a4)
  6e:	0060                	addi	s0,sp,12
  70:	0001                	nop
  72:	0068                	addi	a0,sp,12
  74:	0001                	nop
  76:	0004                	0x4
  78:	9f5b01f3          	0x9f5b01f3
	...
  84:	0058                	addi	a4,sp,4
  86:	0001                	nop
  88:	0060                	addi	s0,sp,12
  8a:	0001                	nop
  8c:	0006                	c.slli	zero,0x1
  8e:	2306007b          	0x2306007b
  92:	9f0a                	add	t5,t5,sp
  94:	0060                	addi	s0,sp,12
  96:	0001                	nop
  98:	0062                	c.slli	zero,0x18
  9a:	0001                	nop
  9c:	0a7a0003          	lb	zero,167(s4)
  a0:	629f 0100 6300      	0x63000100629f
  a6:	0100                	addi	s0,sp,128
  a8:	0100                	addi	s0,sp,128
  aa:	5a00                	lw	s0,48(a2)
	...
  b4:	0058                	addi	a4,sp,4
  b6:	0001                	nop
  b8:	0060                	addi	s0,sp,12
  ba:	0001                	nop
  bc:	0006                	c.slli	zero,0x1
  be:	2306047b          	0x2306047b
  c2:	9f0a                	add	t5,t5,sp
  c4:	0060                	addi	s0,sp,12
  c6:	0001                	nop
  c8:	00010063          	beqz	sp,c8 <main-0xff8c>
  cc:	0001                	nop
  ce:	0000005b          	0x5b
  d2:	0000                	unimp
  d4:	0000                	unimp
  d6:	6800                	flw	fs0,16(s0)
  d8:	0100                	addi	s0,sp,128
  da:	6e00                	flw	fs0,24(a2)
  dc:	0100                	addi	s0,sp,128
  de:	0100                	addi	s0,sp,128
  e0:	5a00                	lw	s0,48(a2)
  e2:	006e                	c.slli	zero,0x1b
  e4:	0001                	nop
  e6:	0080                	addi	s0,sp,64
  e8:	0001                	nop
  ea:	0004                	0x4
  ec:	9f5a01f3          	0x9f5a01f3
	...
  f8:	0068                	addi	a0,sp,12
  fa:	0001                	nop
  fc:	0078                	addi	a4,sp,12
  fe:	0001                	nop
 100:	0001                	nop
 102:	0100785b          	0x100785b
 106:	7b00                	flw	fs0,48(a4)
 108:	0100                	addi	s0,sp,128
 10a:	0200                	addi	s0,sp,256
 10c:	7b00                	flw	fs0,48(a4)
 10e:	7b00                	flw	fs0,48(a4)
 110:	0100                	addi	s0,sp,128
 112:	8000                	0x8000
 114:	0100                	addi	s0,sp,128
 116:	0400                	addi	s0,sp,512
 118:	f300                	fsw	fs0,32(a4)
 11a:	5b01                	li	s6,-32
 11c:	009f 0000 0000      	0x9f
 122:	0000                	unimp
	...

Disassembly of section .debug_ranges:

00000000 <.debug_ranges>:
   0:	0068                	addi	a0,sp,12
   2:	0001                	nop
   4:	0080                	addi	s0,sp,64
   6:	0001                	nop
   8:	0054                	addi	a3,sp,4
   a:	0001                	nop
   c:	0068                	addi	a0,sp,12
   e:	0001                	nop
  10:	0080                	addi	s0,sp,64
  12:	0001                	nop
  14:	0088                	addi	a0,sp,64
  16:	0001                	nop
	...
  20:	0088                	addi	a0,sp,64
  22:	0001                	nop
  24:	008a                	slli	ra,ra,0x2
  26:	0001                	nop
	...
