
out.elf:     file format elf32-littleriscv


Disassembly of section .text:

00010054 <main>:
   10054:	094002ef          	jal	t0,100e8 <__riscv_save_0>
   10058:	41dc                	lw	a5,4(a1)
   1005a:	4188                	lw	a0,0(a1)
   1005c:	00a78593          	addi	a1,a5,10
   10060:	0529                	addi	a0,a0,10
   10062:	2019                	jal	10068 <bar>
   10064:	4501                	li	a0,0
   10066:	a0e9                	j	10130 <__riscv_restore_0>

00010068 <bar>:
   10068:	080002ef          	jal	t0,100e8 <__riscv_save_0>
   1006c:	054e                	slli	a0,a0,0x13
   1006e:	1101                	addi	sp,sp,-32
   10070:	814d                	srli	a0,a0,0x13
   10072:	c42e                	sw	a1,8(sp)
   10074:	c22a                	sw	a0,4(sp)
   10076:	002c                	addi	a1,sp,8
   10078:	0048                	addi	a0,sp,4
   1007a:	2039                	jal	10088 <foo>
   1007c:	6105                	addi	sp,sp,32
   1007e:	a84d                	j	10130 <__riscv_restore_0>

00010080 <_start>:
   10080:	068002ef          	jal	t0,100e8 <__riscv_save_0>
   10084:	3fc1                	jal	10054 <main>
   10086:	a06d                	j	10130 <__riscv_restore_0>

00010088 <foo>:
   10088:	8082                	ret
	...

0001008c <__riscv_save_12>:
   1008c:	fc010113          	addi	sp,sp,-64
   10090:	00000313          	li	t1,0
   10094:	01b12623          	sw	s11,12(sp)
   10098:	00c0006f          	j	100a4 <__riscv_save_10+0x8>

0001009c <__riscv_save_10>:
   1009c:	fc010113          	addi	sp,sp,-64
   100a0:	ff000313          	li	t1,-16
   100a4:	01a12823          	sw	s10,16(sp)
   100a8:	01912a23          	sw	s9,20(sp)
   100ac:	01812c23          	sw	s8,24(sp)
   100b0:	01712e23          	sw	s7,28(sp)
   100b4:	00c0006f          	j	100c0 <__riscv_save_4+0x8>

000100b8 <__riscv_save_4>:
   100b8:	fc010113          	addi	sp,sp,-64
   100bc:	fe000313          	li	t1,-32
   100c0:	03612023          	sw	s6,32(sp)
   100c4:	03512223          	sw	s5,36(sp)
   100c8:	03412423          	sw	s4,40(sp)
   100cc:	03312623          	sw	s3,44(sp)
   100d0:	03212823          	sw	s2,48(sp)
   100d4:	02912a23          	sw	s1,52(sp)
   100d8:	02812c23          	sw	s0,56(sp)
   100dc:	02112e23          	sw	ra,60(sp)
   100e0:	40610133          	sub	sp,sp,t1
   100e4:	00028067          	jr	t0

000100e8 <__riscv_save_0>:
   100e8:	ff010113          	addi	sp,sp,-16
   100ec:	01212023          	sw	s2,0(sp)
   100f0:	00912223          	sw	s1,4(sp)
   100f4:	00812423          	sw	s0,8(sp)
   100f8:	00112623          	sw	ra,12(sp)
   100fc:	00028067          	jr	t0

00010100 <__riscv_restore_12>:
   10100:	00c12d83          	lw	s11,12(sp)
   10104:	01010113          	addi	sp,sp,16

00010108 <__riscv_restore_10>:
   10108:	00012d03          	lw	s10,0(sp)
   1010c:	00412c83          	lw	s9,4(sp)
   10110:	00812c03          	lw	s8,8(sp)
   10114:	00c12b83          	lw	s7,12(sp)
   10118:	01010113          	addi	sp,sp,16

0001011c <__riscv_restore_4>:
   1011c:	00012b03          	lw	s6,0(sp)
   10120:	00412a83          	lw	s5,4(sp)
   10124:	00812a03          	lw	s4,8(sp)
   10128:	00c12983          	lw	s3,12(sp)
   1012c:	01010113          	addi	sp,sp,16

00010130 <__riscv_restore_0>:
   10130:	00012903          	lw	s2,0(sp)
   10134:	00412483          	lw	s1,4(sp)
   10138:	00812403          	lw	s0,8(sp)
   1013c:	00c12083          	lw	ra,12(sp)
   10140:	01010113          	addi	sp,sp,16
   10144:	00008067          	ret
